(lp0
(lp1
F0.0
aF0.0
aI00
aa(lp2
F-3.009075115760242
aF3.993177550236464
aI00
aa(lp3
F2.7266892477502185
aF12.184697993126383
aI00
aa(lp4
F17.071260587195752
aF7.799122422285334
aI00
aa(lp5
F17.420308715941427
aF-12.19783148084249
aI00
aa(lp6
F-6.217655674041492
aF-20.337035342271413
aI00
aa(lp7
F-24.272106368602945
aF3.6220299591473655
aI00
aa(lp8
F-4.196931096316344
aF32.29235150926208
aI00
aa(lp9
F34.055259142205074
aF20.597483320352634
aI00
aa(lp10
F34.840617431882855
aF-24.395662961684966
aI00
aa(lp11
F-12.435311348082962
aF-40.674070684542826
aI01
aa(lp12
F0.0
aF0.0
aI00
aa(lp13
F4.145187862775208
aF2.7959645173537346
aI00
aa(lp14
F13.961459697251847
aF0.8878745635882881
aI00
aa(lp15
F22.349353249313054
aF-11.547689024737334
aI00
aa(lp16
F18.533173341782167
aF-31.180232693690613
aI00
aa(lp17
F-2.19276597209387
aF-45.16005528045929
aI01
aa(lp18
F0.0
aF0.0
aI00
aa(lp19
F4.635919272833937
aF1.87303296707956
aI00
aa(lp20
F8.381985206993058
aF-7.3988055785883144
aI00
aa(lp21
F-5.525772611508753
aF-13.017904479826996
aI00
aa(lp22
F-13.017904479826996
aF5.525772611508753
aI00
aa(lp23
F10.16169188434269
aF14.890937446906559
aI00
aa(lp24
F21.39988968682006
aF-12.924578190097062
aI00
aa(lp25
F-11.051545223017499
aF-26.035808959653995
aI00
aa(lp26
F-26.035808959653995
aF11.051545223017502
aI00
aa(lp27
F15.68746449585144
aF27.90884192673356
aI00
aa(lp28
F34.41779416664707
aF-18.45035080160581
aI00
aa(lp29
F-16.57731783452624
aF-39.053713439481
aI01
aa(lp30
F0.0
aF0.0
aI00
aa(lp31
F1.209609477998337
aF-4.851478631379983
aI00
aa(lp32
F-5.983788525388175
aF-11.798062335969956
aI00
aa(lp33
F-20.402713964462958
aF-7.663501998714966
aI00
aa(lp34
F-25.241151876456314
aF11.742412526804962
aI00
aa(lp35
F-7.257656867990036
aF29.108871788279895
aI00
aa(lp36
F21.58019401015953
aF20.839751113769925
aI00
aa(lp37
F30.047460356147912
aF-13.12059930588995
aI00
aa(lp38
F1.273868342601876
aF-40.90693412424986
aI01
aa(lp39
F0.0
aF0.0
aI00
aa(lp40
F-4.330127018922194
aF2.4999999999999996
aI00
aa(lp41
F4.330127018922192
aF7.5000000000000036
aI00
aa(lp42
F4.3301270189222
aF-7.5
aI00
aa(lp43
F-12.990381056766585
aF2.4999999999999876
aI00
aa(lp44
F8.660254037844373
aF15.000000000000016
aI00
aa(lp45
F8.660254037844414
aF-14.999999999999998
aI00
aa(lp46
F-21.65063509461098
aF2.4999999999999627
aI00
aa(lp47
F12.990381056766548
aF22.500000000000036
aI00
aa(lp48
F12.99038105676664
aF-22.499999999999986
aI00
aa(lp49
F-30.31088913245537
aF2.4999999999999254
aI00
aa(lp50
F17.320508075688704
aF30.00000000000006
aI00
aa(lp51
F17.320508075688874
aF-29.999999999999968
aI00
aa(lp52
F-38.97114317029977
aF2.4999999999998757
aI01
aa(lp53
F0.0
aF0.0
aI00
aa(lp54
F4.698463103929543
aF1.7101007166283435
aI00
aa(lp55
F10.855077857186124
aF-6.170006819438875
aI00
aa(lp56
F2.467184305124924
aF-18.605570407764503
aI00
aa(lp57
F-16.75804961364145
aF-13.092823291424523
aI00
aa(lp58
F-17.63053703120398
aF11.89194738405287
aI00
aa(lp59
F10.560241592373266
aF22.152551683822935
aI00
aa(lp60
F32.108393228771305
aF-5.427824692412322
aI00
aa(lp61
F9.740677089941446
aF-38.589327594613984
aI01
aa(lp62
F0.0
aF0.0
aI00
aa(lp63
F4.493970231495835
aF2.191855733945387
aI00
aa(lp64
F11.440553936085808
aF-5.001542269441124
aI00
aa(lp65
F4.398480494297448
aF-18.24575616232503
aI00
aa(lp66
F-15.29767456594671
aF-14.772792608986427
aI00
aa(lp67
F-18.77700208994835
aF9.983909109552828
aI00
aa(lp68
F8.186819299026656
aF23.135043513225153
aI00
aa(lp69
F32.499862265091565
aF-2.041849498627627
aI00
aa(lp70
F13.72099975365595
aF-37.3597532129847
aI01
aa(lp71
F0.0
aF0.0
aI00
aa(lp72
F-4.9809734904587275
aF-0.4357787137382897
aI00
aa(lp73
F-8.888284775351464
aF8.769269820786114
aI00
aa(lp74
F2.4323589279901157
aF18.61015525564372
aI00
aa(lp75
F19.575704942032356
aF8.309393757442635
aI00
aa(lp76
F13.95192858343573
aF-16.049857862188237
aI00
aa(lp77
F-15.933912359316626
aF-18.66453014461798
aI00
aa(lp78
F-29.609501856441202
aF13.55313972621742
aI00
aa(lp79
F0.5788813524696685
aF39.7955008858377
aI01
aa(lp80
F0.0
aF0.0
aI00
aa(lp81
F-4.92403876506104
aF-0.8682408883346524
aI00
aa(lp82
F-13.115559207950959
aF4.867523475175807
aI00
aa(lp83
F-15.720281872954919
aF19.639639770358926
aI00
aa(lp84
F-4.248753145934005
aF36.02268065613876
aI01
aa(lp85
F0.0
aF0.0
aI00
aa(lp86
F3.4732918522949867
aF3.5966990016932554
aI00
aa(lp87
F6.229665410464982
aF-6.0159179576899335
aI00
aa(lp88
F-8.32477048367497
aF-2.3870895236949248
aI00
aa(lp89
F5.568396925504967
aF11.99970648307811
aI00
aa(lp90
F12.459330820929974
aF-12.031835915379855
aI00
aa(lp91
F-16.649540967349935
aF-4.774179047389862
aI00
aa(lp92
F7.663501998714935
aF20.402713964462976
aI00
aa(lp93
F18.688996231394984
aF-18.047753873069766
aI00
aa(lp94
F-24.9743114510249
aF-7.1612685710848165
aI00
aa(lp95
F9.758607071924889
aF28.805721445847844
aI00
aa(lp96
F24.918661641860005
aF-24.063671830759674
aI00
aa(lp97
F-33.299081934699856
aF-9.548358094779793
aI00
aa(lp98
F11.853712145134821
aF37.20872892723271
aI01
aa.